; Function Attrs: nounwind uwtable
define void @Min_EsopAddCube(ptr noundef captures(none) %0, ptr noundef %1) local_unnamed_addr #0 {
  br label %3

3:                                                ; preds = %3, %2
  %4 = tail call i32 @Min_EsopAddCubeInt(ptr noundef %0, ptr noundef %1)
  %.not = icmp eq i32 %4, 0
  br i1 %.not, label %5, label %3, !llvm.loop !12

5:                                                ; preds = %3
  ret void
}